; Function Attrs: mustprogress uwtable
define void @_ZNK3gmx26AnalysisNeighborhoodSearch15startPairSearchERKNS_29AnalysisNeighborhoodPositionsE(ptr dead_on_unwind noalias writable sret(%"class.gmx::AnalysisNeighborhoodPairSearch") align 8 %0, ptr noundef nonnull readonly align 8 captures(none) dereferenceable(16) %1, ptr noundef nonnull readonly align 8 captures(none) dereferenceable(32) %2) local_unnamed_addr #16 align 2 personality ptr @__gxx_personality_v0 {
  %4 = alloca %"class.std::shared_ptr", align 8
  %5 = load ptr, ptr %1, align 8, !tbaa !187
  %.not = icmp eq ptr %5, null
  br i1 %.not, label %6, label %7

6:                                                ; preds = %3
  tail call void @_ZN3gmx8internal13assertHandlerEPKcS2_S2_S2_i(ptr noundef nonnull @.str.19, ptr noundef nonnull @.str.20, ptr noundef nonnull @"__PRETTY_FUNCTION__._ZZNK3gmx26AnalysisNeighborhoodSearch15startPairSearchERKNS_29AnalysisNeighborhoodPositionsEENK3$_0clEv", ptr noundef nonnull @.str.4, i32 noundef 1408) #40
  unreachable

7:                                                ; preds = %3
  call void @llvm.lifetime.start.p0(i64 16, ptr nonnull %4) #36
  call void @_ZN3gmx8internal30AnalysisNeighborhoodSearchImpl13getPairSearchEv(ptr dead_on_unwind nonnull writable sret(%"class.std::shared_ptr") align 8 %4, ptr noundef nonnull align 8 dereferenceable(624) %5)
  %8 = load ptr, ptr %4, align 8, !tbaa !67
  %9 = getelementptr inbounds nuw i8, ptr %8, i64 8
  store i8 0, ptr %9, align 8, !tbaa !73
  %10 = load i32, ptr %2, align 8, !tbaa !145
  %11 = getelementptr inbounds nuw i8, ptr %8, i64 12
  store i32 %10, ptr %11, align 4, !tbaa !180
  %12 = getelementptr inbounds nuw i8, ptr %2, i64 8
  %13 = load ptr, ptr %12, align 8, !tbaa !148
  %14 = getelementptr inbounds nuw i8, ptr %8, i64 16
  store ptr %13, ptr %14, align 8, !tbaa !90
  %15 = getelementptr inbounds nuw i8, ptr %2, i64 16
  %16 = load ptr, ptr %15, align 8, !tbaa !153
  %17 = getelementptr inbounds nuw i8, ptr %8, i64 24
  store ptr %16, ptr %17, align 8, !tbaa !96
  %18 = getelementptr inbounds nuw i8, ptr %2, i64 24
  %19 = load ptr, ptr %18, align 8, !tbaa !146
  %20 = getelementptr inbounds nuw i8, ptr %8, i64 32
  store ptr %19, ptr %20, align 8, !tbaa !85
  %21 = load ptr, ptr %8, align 8, !tbaa !86
  %22 = getelementptr inbounds nuw i8, ptr %21, i64 48
  %23 = load ptr, ptr %22, align 8, !tbaa !95
  %24 = icmp ne ptr %23, null
  %.not.i = icmp eq ptr %16, null
  %or.cond.i = select i1 %24, i1 %.not.i, i1 false
  br i1 %or.cond.i, label %25, label %26

25:                                               ; preds = %7
  invoke void @_ZN3gmx8internal13assertHandlerEPKcS2_S2_S2_i(ptr noundef nonnull @.str.11, ptr noundef nonnull @.str.12, ptr noundef nonnull @"__PRETTY_FUNCTION__._ZZN3gmx8internal34AnalysisNeighborhoodPairSearchImpl11startSearchERKNS_29AnalysisNeighborhoodPositionsEENK3$_0clEv", ptr noundef nonnull @.str.4, i32 noundef 1048) #40
          to label %.noexc unwind label %57

.noexc:                                           ; preds = %25
  unreachable

26:                                               ; preds = %7
  %27 = getelementptr inbounds nuw i8, ptr %2, i64 4
  %28 = load i32, ptr %27, align 4, !tbaa !133
  %29 = icmp slt i32 %28, 0
  br i1 %29, label %32, label %30

30:                                               ; preds = %26
  %31 = add nuw nsw i32 %28, 1
  store i32 %31, ptr %11, align 4, !tbaa !180
  br label %32

32:                                               ; preds = %30, %26
  %.sink.i = phi i32 [ %28, %30 ], [ 0, %26 ]
  call void @_ZN3gmx8internal34AnalysisNeighborhoodPairSearchImpl5resetEi(ptr noundef nonnull align 8 dereferenceable(140) %8, i32 noundef %.sink.i)
  invoke void @_ZN3gmx30AnalysisNeighborhoodPairSearchC1ERKSt10shared_ptrINS_8internal34AnalysisNeighborhoodPairSearchImplEE(ptr noundef nonnull align 8 dereferenceable(16) %0, ptr noundef nonnull align 8 dereferenceable(16) %4)
          to label %33 unwind label %57

33:                                               ; preds = %32
  %34 = getelementptr inbounds nuw i8, ptr %4, i64 8
  %35 = load ptr, ptr %34, align 8, !tbaa !40
  %.not.i.i = icmp eq ptr %35, null
  br i1 %.not.i.i, label %_ZNSt12__shared_ptrIN3gmx8internal34AnalysisNeighborhoodPairSearchImplELN9__gnu_cxx12_Lock_policyE2EED2Ev.exit, label %36

36:                                               ; preds = %33
  %37 = getelementptr inbounds nuw i8, ptr %35, i64 8
  %38 = load atomic i64, ptr %37 acquire, align 8
  %39 = icmp eq i64 %38, 4294967297
  %40 = trunc i64 %38 to i32
  br i1 %39, label %41, label %49

41:                                               ; preds = %36
  store i32 0, ptr %37, align 8, !tbaa !43
  %42 = getelementptr inbounds nuw i8, ptr %35, i64 12
  store i32 0, ptr %42, align 4, !tbaa !45
  %43 = load ptr, ptr %35, align 8, !tbaa !46
  %44 = getelementptr inbounds nuw i8, ptr %43, i64 16
  %45 = load ptr, ptr %44, align 8
  call void %45(ptr noundef nonnull align 8 dereferenceable(16) %35) #36
  %46 = load ptr, ptr %35, align 8, !tbaa !46
  %47 = getelementptr inbounds nuw i8, ptr %46, i64 24
  %48 = load ptr, ptr %47, align 8
  call void %48(ptr noundef nonnull align 8 dereferenceable(16) %35) #36
  br label %_ZNSt12__shared_ptrIN3gmx8internal34AnalysisNeighborhoodPairSearchImplELN9__gnu_cxx12_Lock_policyE2EED2Ev.exit

49:                                               ; preds = %36
  %50 = load i8, ptr @__libc_single_threaded, align 1, !tbaa !48
  %.not.i.i.i = icmp eq i8 %50, 0
  br i1 %.not.i.i.i, label %53, label %51

51:                                               ; preds = %49
  %52 = add nsw i32 %40, -1
  store i32 %52, ptr %37, align 4, !tbaa !39
  br label %_ZN9__gnu_cxx27__exchange_and_add_dispatchEPii.exit.i.i.i

53:                                               ; preds = %49
  %54 = atomicrmw volatile add ptr %37, i32 -1 acq_rel, align 4
  br label %_ZN9__gnu_cxx27__exchange_and_add_dispatchEPii.exit.i.i.i

_ZN9__gnu_cxx27__exchange_and_add_dispatchEPii.exit.i.i.i: ; preds = %53, %51
  %.0.i.i.i.i = phi i32 [ %40, %51 ], [ %54, %53 ]
  %55 = icmp eq i32 %.0.i.i.i.i, 1
  br i1 %55, label %56, label %_ZNSt12__shared_ptrIN3gmx8internal34AnalysisNeighborhoodPairSearchImplELN9__gnu_cxx12_Lock_policyE2EED2Ev.exit, !prof !49

56:                                               ; preds = %_ZN9__gnu_cxx27__exchange_and_add_dispatchEPii.exit.i.i.i
  call void @_ZNSt16_Sp_counted_baseILN9__gnu_cxx12_Lock_policyE2EE24_M_release_last_use_coldEv(ptr noundef nonnull align 8 dereferenceable(16) %35) #36
  br label %_ZNSt12__shared_ptrIN3gmx8internal34AnalysisNeighborhoodPairSearchImplELN9__gnu_cxx12_Lock_policyE2EED2Ev.exit

_ZNSt12__shared_ptrIN3gmx8internal34AnalysisNeighborhoodPairSearchImplELN9__gnu_cxx12_Lock_policyE2EED2Ev.exit: ; preds = %33, %41, %_ZN9__gnu_cxx27__exchange_and_add_dispatchEPii.exit.i.i.i, %56
  call void @llvm.lifetime.end.p0(i64 16, ptr nonnull %4) #36
  ret void

57:                                               ; preds = %25, %32
  %58 = landingpad { ptr, i32 }
          cleanup
  call void @_ZNSt12__shared_ptrIN3gmx8internal34AnalysisNeighborhoodPairSearchImplELN9__gnu_cxx12_Lock_policyE2EED2Ev(ptr noundef nonnull align 8 dereferenceable(16) %4) #36
  call void @llvm.lifetime.end.p0(i64 16, ptr nonnull %4) #36
  resume { ptr, i32 } %58
}